; Function Attrs: mustprogress nounwind uwtable
define hidden noundef i64 @_ZNK20ParallelScavengeHeap8capacityEv(ptr nocapture nonnull readnone align 8 %0) unnamed_addr #0 align 2 {
  %2 = load ptr, ptr @_ZN20ParallelScavengeHeap10_young_genE, align 8
  %3 = tail call noundef i64 @_ZNK10PSYoungGen17capacity_in_bytesEv(ptr noundef nonnull align 8 dereferenceable(104) %2) #15
  %4 = load ptr, ptr @_ZN20ParallelScavengeHeap8_old_genE, align 8
  %5 = getelementptr inbounds i8, ptr %4, i64 88
  %6 = load ptr, ptr %5, align 8
  %7 = getelementptr inbounds i8, ptr %6, i64 48
  %8 = load ptr, ptr %7, align 8
  %9 = getelementptr inbounds i8, ptr %6, i64 32
  %10 = load ptr, ptr %9, align 8
  %11 = ptrtoint ptr %8 to i64
  %12 = ptrtoint ptr %10 to i64
  %13 = sub i64 %11, %12
  %14 = and i64 %13, -8
  %15 = add i64 %14, %3
  ret i64 %15
}